target datalayout = "e-m:e-p270:32:32-p271:32:32-p272:64:64-i64:64-i128:128-f80:128-n8:16:32:64-S128"
target triple = "x86_64-pc-linux-gnu"

%"class.cv::Size_" = type { i32, i32 }
%"class.cv::Point_" = type { float, float }

; Function Attrs: mustprogress uwtable
define void @_ZN2cv8logPolarERKNS_11_InputArrayERKNS_12_OutputArrayENS_6Point_IfEEdi(ptr noundef nonnull align 8 dereferenceable(24) %0, ptr noundef nonnull align 8 dereferenceable(24) %1, <2 x float> %2, double noundef %3, i32 noundef %4) #12 {
  %6 = alloca %"class.cv::Point_", align 4
  %7 = alloca ptr, align 8
  %8 = alloca ptr, align 8
  %9 = alloca double, align 8
  %10 = alloca i32, align 4
  %11 = alloca %"class.cv::Size_", align 4
  %12 = alloca double, align 8
  %13 = alloca %"class.cv::Size_", align 4
  %14 = alloca %"class.cv::Point_", align 4
  store <2 x float> %2, ptr %6, align 4
  store ptr %0, ptr %7, align 8, !tbaa !7
  store ptr %1, ptr %8, align 8, !tbaa !10
  store double %3, ptr %9, align 8, !tbaa !37
  store i32 %4, ptr %10, align 4, !tbaa !12
  call void @llvm.lifetime.start.p0(i64 8, ptr %11) #21
  %15 = load ptr, ptr %7, align 8, !tbaa !7
  %16 = call i64 @_ZNK2cv11_InputArray4sizeEi(ptr noundef nonnull align 8 dereferenceable(24) %15, i32 noundef -1)
  store i64 %16, ptr %11, align 4
  call void @llvm.lifetime.start.p0(i64 8, ptr %12) #21
  %17 = load double, ptr %9, align 8, !tbaa !37
  %18 = fcmp ogt double %17, 0.000000e+00
  br i1 %18, label %19, label %26

19:                                               ; preds = %5
  %20 = getelementptr inbounds nuw %"class.cv::Size_", ptr %11, i32 0, i32 0
  %21 = load i32, ptr %20, align 4, !tbaa !42
  %22 = sitofp i32 %21 to double
  %23 = load double, ptr %9, align 8, !tbaa !37
  %24 = fdiv double %22, %23
  %25 = call double @exp(double noundef %24) #21, !tbaa !12
  br label %27

26:                                               ; preds = %5
  br label %27

27:                                               ; preds = %26, %19
  %28 = phi double [ %25, %19 ], [ 1.000000e+00, %26 ]
  store double %28, ptr %12, align 8, !tbaa !37
  %29 = load ptr, ptr %7, align 8, !tbaa !7
  %30 = load ptr, ptr %8, align 8, !tbaa !10
  call void @llvm.memcpy.p0.p0.i64(ptr align 4 %13, ptr align 4 %11, i64 8, i1 false), !tbaa.struct !514
  call void @llvm.memcpy.p0.p0.i64(ptr align 4 %14, ptr align 4 %6, i64 8, i1 false), !tbaa.struct !567
  %31 = load double, ptr %12, align 8, !tbaa !37
  %32 = load i32, ptr %10, align 4, !tbaa !12
  %33 = or i32 %32, 256
  %34 = load i64, ptr %13, align 4
  %35 = load <2 x float>, ptr %14, align 4
  call void @_ZN2cv9warpPolarERKNS_11_InputArrayERKNS_12_OutputArrayENS_5Size_IiEENS_6Point_IfEEdi(ptr noundef nonnull align 8 dereferenceable(24) %29, ptr noundef nonnull align 8 dereferenceable(24) %30, i64 %34, <2 x float> %35, double noundef %31, i32 noundef %33)
  call void @llvm.lifetime.end.p0(i64 8, ptr %12) #21
  call void @llvm.lifetime.end.p0(i64 8, ptr %11) #21
  ret void
}