; Function Attrs: mustprogress uwtable
define void @_ZN2cv8logPolarERKNS_11_InputArrayERKNS_12_OutputArrayENS_6Point_IfEEdi(ptr noundef nonnull align 8 dereferenceable(24) %0, ptr noundef nonnull align 8 dereferenceable(24) %1, <2 x float> %2, double noundef %3, i32 noundef %4) local_unnamed_addr #12 {
  %6 = tail call i64 @_ZNK2cv11_InputArray4sizeEi(ptr noundef nonnull align 8 dereferenceable(24) %0, i32 noundef -1)
  %7 = fcmp ogt double %3, 0.000000e+00
  br i1 %7, label %8, label %12

8:                                                ; preds = %5
  %.sroa.02.0.extract.trunc = trunc i64 %6 to i32
  %9 = sitofp i32 %.sroa.02.0.extract.trunc to double
  %10 = fdiv double %9, %3
  %11 = tail call double @exp(double noundef %10) #24, !tbaa !28
  br label %12

12:                                               ; preds = %5, %8
  %13 = phi double [ %11, %8 ], [ 1.000000e+00, %5 ]
  %14 = or i32 %4, 256
  tail call void @_ZN2cv9warpPolarERKNS_11_InputArrayERKNS_12_OutputArrayENS_5Size_IiEENS_6Point_IfEEdi(ptr noundef nonnull align 8 dereferenceable(24) %0, ptr noundef nonnull align 8 dereferenceable(24) %1, i64 %6, <2 x float> %2, double noundef %13, i32 noundef %14)
  ret void
}